target datalayout = "e-m:e-p270:32:32-p271:32:32-p272:64:64-i64:64-i128:128-f80:128-n8:16:32:64-S128"
target triple = "x86_64-pc-linux-gnu"

%"class.absl::str_format_internal::(anonymous namespace)::ConsumeUnboundConversionTest" = type { %"class.testing::Test", %"struct.absl::str_format_internal::UnboundConversion" }
%"class.testing::Test" = type { ptr, %"class.std::unique_ptr" }
%"class.std::unique_ptr" = type { %"struct.std::__uniq_ptr_data" }
%"struct.std::__uniq_ptr_data" = type { %"class.std::__uniq_ptr_impl" }
%"class.std::__uniq_ptr_impl" = type { %"class.std::tuple" }
%"class.std::tuple" = type { %"struct.std::_Tuple_impl" }
%"struct.std::_Tuple_impl" = type { %"struct.std::_Head_base.12" }
%"struct.std::_Head_base.12" = type { ptr }
%"struct.absl::str_format_internal::UnboundConversion" = type <{ i32, %"class.absl::str_format_internal::UnboundConversion::InputValue", %"class.absl::str_format_internal::UnboundConversion::InputValue", i8, i8, i8, i8 }>
%"class.absl::str_format_internal::UnboundConversion::InputValue" = type { i32 }

; Function Attrs: inlinehint mustprogress nounwind uwtable
define linkonce_odr dso_local void @_ZN4absl19str_format_internal17UnboundConversion10InputValueC2Ev(ptr noundef nonnull align 4 dereferenceable(4) %0) unnamed_addr #10 comdat align 2 {
  %2 = alloca ptr, align 8
  store ptr %0, ptr %2, align 8, !tbaa !219
  %3 = load ptr, ptr %2, align 8
  %4 = getelementptr inbounds nuw %"class.absl::str_format_internal::UnboundConversion::InputValue", ptr %3, i32 0, i32 0
  store i32 -1, ptr %4, align 4, !tbaa !221
  ret void
}

; Function Attrs: mustprogress nounwind uwtable
define linkonce_odr dso_local void @_ZN4absl19str_format_internal17UnboundConversionC2Ev(ptr noundef nonnull align 4 dereferenceable(15) %0) unnamed_addr #5 comdat align 2 {
  %2 = alloca ptr, align 8
  store ptr %0, ptr %2, align 8, !tbaa !211
  %3 = load ptr, ptr %2, align 8
  %4 = getelementptr inbounds nuw %"struct.absl::str_format_internal::UnboundConversion", ptr %3, i32 0, i32 1
  call void @_ZN4absl19str_format_internal17UnboundConversion10InputValueC2Ev(ptr noundef nonnull align 4 dereferenceable(4) %4) #3
  %5 = getelementptr inbounds nuw %"struct.absl::str_format_internal::UnboundConversion", ptr %3, i32 0, i32 2
  call void @_ZN4absl19str_format_internal17UnboundConversion10InputValueC2Ev(ptr noundef nonnull align 4 dereferenceable(4) %5) #3
  %6 = getelementptr inbounds nuw %"struct.absl::str_format_internal::UnboundConversion", ptr %3, i32 0, i32 3
  store i8 0, ptr %6, align 4, !tbaa !213
  %7 = getelementptr inbounds nuw %"struct.absl::str_format_internal::UnboundConversion", ptr %3, i32 0, i32 4
  store i8 9, ptr %7, align 1, !tbaa !217
  %8 = getelementptr inbounds nuw %"struct.absl::str_format_internal::UnboundConversion", ptr %3, i32 0, i32 5
  store i8 19, ptr %8, align 2, !tbaa !218
  ret void
}

; Function Attrs: inlinehint mustprogress uwtable
define internal void @_ZN4absl19str_format_internal12_GLOBAL__N_128ConsumeUnboundConversionTestC2Ev(ptr noundef nonnull align 8 dereferenceable(32) %0) unnamed_addr #8 align 2 personality ptr @__gxx_personality_v0 {
  %2 = alloca ptr, align 8
  %3 = alloca ptr, align 8
  %4 = alloca i32, align 4
  store ptr %0, ptr %2, align 8, !tbaa !205
  %5 = load ptr, ptr %2, align 8
  call void @_ZN7testing4TestC2Ev(ptr noundef nonnull align 8 dereferenceable(16) %5)
  store ptr getelementptr inbounds inrange(-16, 48) ({ [8 x ptr] }, ptr @_ZTVN4absl19str_format_internal12_GLOBAL__N_128ConsumeUnboundConversionTestE, i32 0, i32 0, i32 2), ptr %5, align 8, !tbaa !27
  %6 = getelementptr inbounds nuw %"class.absl::str_format_internal::(anonymous namespace)::ConsumeUnboundConversionTest", ptr %5, i32 0, i32 1
  invoke void @_ZN4absl19str_format_internal17UnboundConversionC2Ev(ptr noundef nonnull align 4 dereferenceable(15) %6)
          to label %7 unwind label %8

7:                                                ; preds = %1
  ret void

8:                                                ; preds = %1
  %9 = landingpad { ptr, i32 }
          cleanup
  %10 = extractvalue { ptr, i32 } %9, 0
  store ptr %10, ptr %3, align 8
  %11 = extractvalue { ptr, i32 } %9, 1
  store i32 %11, ptr %4, align 4
  call void @_ZN7testing4TestD2Ev(ptr noundef nonnull align 8 dereferenceable(16) %5) #3
  br label %12

12:                                               ; preds = %8
  %13 = load ptr, ptr %3, align 8
  %14 = load i32, ptr %4, align 4
  %15 = insertvalue { ptr, i32 } poison, ptr %13, 0
  %16 = insertvalue { ptr, i32 } %15, i32 %14, 1
  resume { ptr, i32 } %16
}

; Function Attrs: mustprogress uwtable
define internal void @_ZN4absl19str_format_internal12_GLOBAL__N_154ConsumeUnboundConversionTest_ConsumeSpecification_TestC2Ev(ptr noundef nonnull align 8 dereferenceable(32) %0) unnamed_addr #6 align 2 {
  %2 = alloca ptr, align 8
  store ptr %0, ptr %2, align 8, !tbaa !203
  %3 = load ptr, ptr %2, align 8
  call void @_ZN4absl19str_format_internal12_GLOBAL__N_128ConsumeUnboundConversionTestC2Ev(ptr noundef nonnull align 8 dereferenceable(32) %3)
  store ptr getelementptr inbounds inrange(-16, 48) ({ [8 x ptr] }, ptr @_ZTVN4absl19str_format_internal12_GLOBAL__N_154ConsumeUnboundConversionTest_ConsumeSpecification_TestE, i32 0, i32 0, i32 2), ptr %3, align 8, !tbaa !27
  ret void
}

; Function Attrs: mustprogress uwtable
define internal noundef ptr @_ZN7testing8internal15TestFactoryImplIN4absl19str_format_internal12_GLOBAL__N_154ConsumeUnboundConversionTest_ConsumeSpecification_TestEE10CreateTestEv(ptr noundef nonnull align 8 dereferenceable(8) %0) unnamed_addr #6 align 2 personality ptr @__gxx_personality_v0 {
  %2 = alloca ptr, align 8
  %3 = alloca ptr, align 8
  %4 = alloca i32, align 4
  store ptr %0, ptr %2, align 8, !tbaa !33
  %5 = call noalias noundef nonnull ptr @_Znwm(i64 noundef 32) #18
  invoke void @_ZN4absl19str_format_internal12_GLOBAL__N_154ConsumeUnboundConversionTest_ConsumeSpecification_TestC2Ev(ptr noundef nonnull align 8 dereferenceable(32) %5)
          to label %6 unwind label %7

6:                                                ; preds = %1
  ret ptr %5

7:                                                ; preds = %1
  %8 = landingpad { ptr, i32 }
          cleanup
  %9 = extractvalue { ptr, i32 } %8, 0
  store ptr %9, ptr %3, align 8
  %10 = extractvalue { ptr, i32 } %8, 1
  store i32 %10, ptr %4, align 4
  call void @_ZdlPvm(ptr noundef %5, i64 noundef 32) #19
  br label %11

11:                                               ; preds = %7
  %12 = load ptr, ptr %3, align 8
  %13 = load i32, ptr %4, align 4
  %14 = insertvalue { ptr, i32 } poison, ptr %12, 0
  %15 = insertvalue { ptr, i32 } %14, i32 %13, 1
  resume { ptr, i32 } %15
}